; Function Attrs: mustprogress uwtable
define void @_ZN12RichFileSaveC2ERK7QStringS2_S2_S2_S2_bS2_(ptr noundef nonnull align 8 dereferenceable(64) %0, ptr noundef nonnull align 8 dereferenceable(8) %1, ptr noundef nonnull align 8 dereferenceable(8) %2, ptr nocapture noundef nonnull readonly align 8 dereferenceable(8) %3, ptr noundef nonnull align 8 dereferenceable(8) %4, ptr noundef nonnull align 8 dereferenceable(8) %5, i1 noundef zeroext %6, ptr noundef nonnull align 8 dereferenceable(8) %7) unnamed_addr #1 align 2 personality ptr @__gxx_personality_v0 {
  %9 = alloca %class.StringValue, align 8
  call void @_ZN11StringValueC1ERK7QString(ptr noundef nonnull align 8 dereferenceable(16) %9, ptr noundef nonnull align 8 dereferenceable(8) %2)
  invoke void @_ZN13RichParameterC2ERK7QStringRK5ValueS2_S2_bS2_(ptr noundef nonnull align 8 dereferenceable(56) %0, ptr noundef nonnull align 8 dereferenceable(8) %1, ptr noundef nonnull align 8 dereferenceable(8) %9, ptr noundef nonnull align 8 dereferenceable(8) %4, ptr noundef nonnull align 8 dereferenceable(8) %5, i1 noundef zeroext %6, ptr noundef nonnull align 8 dereferenceable(8) %7)
          to label %10 unwind label %22

10:                                               ; preds = %8
  store ptr getelementptr inbounds ({ [25 x ptr] }, ptr @_ZTV11StringValue, i64 0, i32 0, i64 2), ptr %9, align 8
  %11 = getelementptr inbounds i8, ptr %9, i64 8
  %12 = load ptr, ptr %11, align 8
  %13 = load atomic i32, ptr %12 monotonic, align 4
  switch i32 %13, label %_ZN9QtPrivate8RefCount5derefEv.exit.i.i [
    i32 0, label %_ZN9QtPrivate8RefCount5derefEv.exit.thread2.i.i
    i32 -1, label %_ZN11StringValueD2Ev.exit
  ]

_ZN9QtPrivate8RefCount5derefEv.exit.i.i:          ; preds = %10
  %14 = atomicrmw sub ptr %12, i32 1 seq_cst, align 4
  %.not.i.i = icmp eq i32 %14, 1
  br i1 %.not.i.i, label %_ZN9QtPrivate8RefCount5derefEv.exit._ZN9QtPrivate8RefCount5derefEv.exit.thread2_crit_edge.i.i, label %_ZN11StringValueD2Ev.exit

_ZN9QtPrivate8RefCount5derefEv.exit._ZN9QtPrivate8RefCount5derefEv.exit.thread2_crit_edge.i.i: ; preds = %_ZN9QtPrivate8RefCount5derefEv.exit.i.i
  %.pre.i.i = load ptr, ptr %11, align 8
  br label %_ZN9QtPrivate8RefCount5derefEv.exit.thread2.i.i

_ZN9QtPrivate8RefCount5derefEv.exit.thread2.i.i:  ; preds = %_ZN9QtPrivate8RefCount5derefEv.exit._ZN9QtPrivate8RefCount5derefEv.exit.thread2_crit_edge.i.i, %10
  %15 = phi ptr [ %.pre.i.i, %_ZN9QtPrivate8RefCount5derefEv.exit._ZN9QtPrivate8RefCount5derefEv.exit.thread2_crit_edge.i.i ], [ %12, %10 ]
  call void @_ZN10QArrayData10deallocateEPS_mm(ptr noundef %15, i64 noundef 2, i64 noundef 8) #9
  br label %_ZN11StringValueD2Ev.exit

_ZN11StringValueD2Ev.exit:                        ; preds = %10, %_ZN9QtPrivate8RefCount5derefEv.exit.i.i, %_ZN9QtPrivate8RefCount5derefEv.exit.thread2.i.i
  store ptr getelementptr inbounds ({ [8 x ptr] }, ptr @_ZTV12RichFileSave, i64 0, i32 0, i64 2), ptr %0, align 8
  %16 = getelementptr inbounds i8, ptr %0, i64 56
  %17 = load ptr, ptr %3, align 8
  store ptr %17, ptr %16, align 8
  %18 = load atomic i32, ptr %17 monotonic, align 4
  %19 = add i32 %18, -1
  %or.cond.not.i.i = icmp ult i32 %19, -2
  br i1 %or.cond.not.i.i, label %20, label %_ZN7QStringC2ERKS_.exit

20:                                               ; preds = %_ZN11StringValueD2Ev.exit
  %21 = atomicrmw add ptr %17, i32 1 seq_cst, align 4
  br label %_ZN7QStringC2ERKS_.exit

_ZN7QStringC2ERKS_.exit:                          ; preds = %_ZN11StringValueD2Ev.exit, %20
  ret void

22:                                               ; preds = %8
  %23 = landingpad { ptr, i32 }
          cleanup
  call void @_ZN11StringValueD2Ev(ptr noundef nonnull align 8 dereferenceable(16) %9) #9
  resume { ptr, i32 } %23
}